; Function Attrs: mustprogress uwtable
define internal void @_ZN12_GLOBAL__N_137FromChars_HexdecimalDoubleLimits_Test8TestBodyEv(ptr nonnull readnone align 8 captures(none) %0) unnamed_addr #4 align 2 personality ptr @__gxx_personality_v0 {
  %2 = alloca %"class.std::function", align 8
  %3 = alloca %"class.std::function.38", align 8
  call void @llvm.lifetime.start.p0(i64 32, ptr nonnull %2) #23
  %4 = getelementptr inbounds nuw i8, ptr %2, i64 16
  %5 = getelementptr inbounds nuw i8, ptr %2, i64 24
  call void @llvm.memset.p0.i64(ptr noundef nonnull align 8 dereferenceable(32) %2, i8 0, i64 16, i1 false)
  store ptr @"_ZNSt17_Function_handlerIFNSt7__cxx1112basic_stringIcSt11char_traitsIcESaIcEEEiEZN12_GLOBAL__N_137FromChars_HexdecimalDoubleLimits_Test8TestBodyEvE3$_0E9_M_invokeERKSt9_Any_dataOi", ptr %5, align 8, !tbaa !294
  store ptr @"_ZNSt17_Function_handlerIFNSt7__cxx1112basic_stringIcSt11char_traitsIcESaIcEEEiEZN12_GLOBAL__N_137FromChars_HexdecimalDoubleLimits_Test8TestBodyEvE3$_0E10_M_managerERSt9_Any_dataRKSB_St18_Manager_operation", ptr %4, align 8, !tbaa !297
  call void @llvm.lifetime.start.p0(i64 32, ptr nonnull %3) #23
  %6 = getelementptr inbounds nuw i8, ptr %3, i64 16
  %7 = getelementptr inbounds nuw i8, ptr %3, i64 24
  call void @llvm.memset.p0.i64(ptr noundef nonnull align 8 dereferenceable(32) %3, i8 0, i64 16, i1 false)
  store ptr @"_ZNSt17_Function_handlerIFdiEZN12_GLOBAL__N_137FromChars_HexdecimalDoubleLimits_Test8TestBodyEvE3$_1E9_M_invokeERKSt9_Any_dataOi", ptr %7, align 8, !tbaa !298
  store ptr @"_ZNSt17_Function_handlerIFdiEZN12_GLOBAL__N_137FromChars_HexdecimalDoubleLimits_Test8TestBodyEvE3$_1E10_M_managerERSt9_Any_dataRKS5_St18_Manager_operation", ptr %6, align 8, !tbaa !297
  invoke fastcc void @_ZN12_GLOBAL__N_124TestOverflowAndUnderflowIdEEvRKSt8functionIFNSt7__cxx1112basic_stringIcSt11char_traitsIcESaIcEEEiEERKS1_IFT_iEEii(ptr noundef nonnull align 8 dereferenceable(32) %2, ptr noundef nonnull align 8 dereferenceable(32) %3, i32 noundef -1074, i32 noundef 1023)
          to label %8 unwind label %21

8:                                                ; preds = %1
  %9 = load ptr, ptr %6, align 8, !tbaa !297
  %.not.i = icmp eq ptr %9, null
  br i1 %.not.i, label %_ZNSt14_Function_baseD2Ev.exit, label %10

10:                                               ; preds = %8
  %11 = invoke noundef zeroext i1 %9(ptr noundef nonnull align 8 dereferenceable(32) %3, ptr noundef nonnull align 8 dereferenceable(32) %3, i32 noundef 3)
          to label %_ZNSt14_Function_baseD2Ev.exit unwind label %12

12:                                               ; preds = %10
  %13 = landingpad { ptr, i32 }
          catch ptr null
  %14 = extractvalue { ptr, i32 } %13, 0
  call void @__clang_call_terminate(ptr %14) #24
  unreachable

_ZNSt14_Function_baseD2Ev.exit:                   ; preds = %8, %10
  call void @llvm.lifetime.end.p0(i64 32, ptr nonnull %3) #23
  %15 = load ptr, ptr %4, align 8, !tbaa !297
  %.not.i1 = icmp eq ptr %15, null
  br i1 %.not.i1, label %_ZNSt14_Function_baseD2Ev.exit2, label %16

16:                                               ; preds = %_ZNSt14_Function_baseD2Ev.exit
  %17 = invoke noundef zeroext i1 %15(ptr noundef nonnull align 8 dereferenceable(32) %2, ptr noundef nonnull align 8 dereferenceable(32) %2, i32 noundef 3)
          to label %_ZNSt14_Function_baseD2Ev.exit2 unwind label %18

18:                                               ; preds = %16
  %19 = landingpad { ptr, i32 }
          catch ptr null
  %20 = extractvalue { ptr, i32 } %19, 0
  call void @__clang_call_terminate(ptr %20) #24
  unreachable

_ZNSt14_Function_baseD2Ev.exit2:                  ; preds = %_ZNSt14_Function_baseD2Ev.exit, %16
  call void @llvm.lifetime.end.p0(i64 32, ptr nonnull %2) #23
  ret void

21:                                               ; preds = %1
  %22 = landingpad { ptr, i32 }
          cleanup
  %23 = load ptr, ptr %6, align 8, !tbaa !297
  %.not.i3 = icmp eq ptr %23, null
  br i1 %.not.i3, label %_ZNSt14_Function_baseD2Ev.exit4, label %24

24:                                               ; preds = %21
  %25 = invoke noundef zeroext i1 %23(ptr noundef nonnull align 8 dereferenceable(32) %3, ptr noundef nonnull align 8 dereferenceable(32) %3, i32 noundef 3)
          to label %_ZNSt14_Function_baseD2Ev.exit4 unwind label %26

26:                                               ; preds = %24
  %27 = landingpad { ptr, i32 }
          catch ptr null
  %28 = extractvalue { ptr, i32 } %27, 0
  call void @__clang_call_terminate(ptr %28) #24
  unreachable

_ZNSt14_Function_baseD2Ev.exit4:                  ; preds = %21, %24
  call void @llvm.lifetime.end.p0(i64 32, ptr nonnull %3) #23
  %29 = load ptr, ptr %4, align 8, !tbaa !297
  %.not.i5 = icmp eq ptr %29, null
  br i1 %.not.i5, label %_ZNSt14_Function_baseD2Ev.exit6, label %30

30:                                               ; preds = %_ZNSt14_Function_baseD2Ev.exit4
  %31 = invoke noundef zeroext i1 %29(ptr noundef nonnull align 8 dereferenceable(32) %2, ptr noundef nonnull align 8 dereferenceable(32) %2, i32 noundef 3)
          to label %_ZNSt14_Function_baseD2Ev.exit6 unwind label %32

32:                                               ; preds = %30
  %33 = landingpad { ptr, i32 }
          catch ptr null
  %34 = extractvalue { ptr, i32 } %33, 0
  call void @__clang_call_terminate(ptr %34) #24
  unreachable

_ZNSt14_Function_baseD2Ev.exit6:                  ; preds = %_ZNSt14_Function_baseD2Ev.exit4, %30
  call void @llvm.lifetime.end.p0(i64 32, ptr nonnull %2) #23
  resume { ptr, i32 } %22
}